target datalayout = "e-m:e-p270:32:32-p271:32:32-p272:64:64-i64:64-i128:128-f80:128-n8:16:32:64-S128"
target triple = "x86_64-pc-linux-gnu"

%"struct.Luau::BytecodeBuilder::StringRef" = type { ptr, i64 }
%"struct.Luau::BytecodeBuilder::ConstantKey" = type { i32, i64, i64 }
%"struct.Luau::BytecodeBuilder::Constant" = type { i32, %union.anon.82 }
%union.anon.82 = type { double, [8 x i8] }

@__const._ZN4Luau15BytecodeBuilder17addConstantStringENS0_9StringRefE.c = private unnamed_addr constant { i32, [4 x i8], { i8, [15 x i8] } } { i32 4, [4 x i8] undef, { i8, [15 x i8] } { i8 0, [15 x i8] undef } }, align 8

; Function Attrs: mustprogress uwtable
define dso_local noundef i32 @_ZN4Luau15BytecodeBuilder17addConstantStringENS0_9StringRefE(ptr noundef nonnull align 8 dereferenceable(840) %0, ptr %1, i64 %2) #2 align 2 {
  %4 = alloca %"struct.Luau::BytecodeBuilder::StringRef", align 8
  %5 = alloca ptr, align 8
  %6 = alloca i32, align 4
  %7 = alloca %"struct.Luau::BytecodeBuilder::StringRef", align 8
  %8 = alloca %"struct.Luau::BytecodeBuilder::Constant", align 8
  %9 = alloca %"struct.Luau::BytecodeBuilder::ConstantKey", align 8
  %10 = getelementptr inbounds nuw { ptr, i64 }, ptr %4, i32 0, i32 0
  store ptr %1, ptr %10, align 8
  %11 = getelementptr inbounds nuw { ptr, i64 }, ptr %4, i32 0, i32 1
  store i64 %2, ptr %11, align 8
  store ptr %0, ptr %5, align 8, !tbaa !35
  %12 = load ptr, ptr %5, align 8
  call void @llvm.lifetime.start.p0(i64 4, ptr %6) #19
  call void @llvm.memcpy.p0.p0.i64(ptr align 8 %7, ptr align 8 %4, i64 16, i1 false), !tbaa.struct !263
  %13 = getelementptr inbounds nuw { ptr, i64 }, ptr %7, i32 0, i32 0
  %14 = load ptr, ptr %13, align 8
  %15 = getelementptr inbounds nuw { ptr, i64 }, ptr %7, i32 0, i32 1
  %16 = load i64, ptr %15, align 8
  %17 = call noundef i32 @_ZN4Luau15BytecodeBuilder19addStringTableEntryENS0_9StringRefE(ptr noundef nonnull align 8 dereferenceable(840) %12, ptr %14, i64 %16)
  store i32 %17, ptr %6, align 4, !tbaa !28
  call void @llvm.lifetime.start.p0(i64 24, ptr %8) #19
  call void @llvm.memcpy.p0.p0.i64(ptr align 8 %8, ptr align 8 @__const._ZN4Luau15BytecodeBuilder17addConstantStringENS0_9StringRefE.c, i64 24, i1 false)
  %18 = load i32, ptr %6, align 4, !tbaa !28
  %19 = getelementptr inbounds nuw %"struct.Luau::BytecodeBuilder::Constant", ptr %8, i32 0, i32 1
  store i32 %18, ptr %19, align 8, !tbaa !220
  call void @llvm.lifetime.start.p0(i64 24, ptr %9) #19
  %20 = getelementptr inbounds nuw %"struct.Luau::BytecodeBuilder::ConstantKey", ptr %9, i32 0, i32 0
  store i32 4, ptr %20, align 8, !tbaa !25
  %21 = getelementptr inbounds nuw %"struct.Luau::BytecodeBuilder::ConstantKey", ptr %9, i32 0, i32 1
  %22 = load i32, ptr %6, align 4, !tbaa !28
  %23 = zext i32 %22 to i64
  store i64 %23, ptr %21, align 8, !tbaa !29
  %24 = getelementptr inbounds nuw %"struct.Luau::BytecodeBuilder::ConstantKey", ptr %9, i32 0, i32 2
  store i64 0, ptr %24, align 8, !tbaa !139
  %25 = call noundef i32 @_ZN4Luau15BytecodeBuilder11addConstantERKNS0_11ConstantKeyERKNS0_8ConstantE(ptr noundef nonnull align 8 dereferenceable(840) %12, ptr noundef nonnull align 8 dereferenceable(24) %9, ptr noundef nonnull align 8 dereferenceable(24) %8)
  call void @llvm.lifetime.end.p0(i64 24, ptr %9) #19
  call void @llvm.lifetime.end.p0(i64 24, ptr %8) #19
  call void @llvm.lifetime.end.p0(i64 4, ptr %6) #19
  ret i32 %25
}