; Function Attrs: mustprogress uwtable
define dso_local noundef i32 @_ZN4Luau15BytecodeBuilder17addConstantStringENS0_9StringRefE(ptr noundef nonnull align 8 dereferenceable(840) %0, ptr %1, i64 %2) local_unnamed_addr #3 align 2 {
  %4 = alloca %"struct.Luau::BytecodeBuilder::Constant", align 8
  %5 = alloca %"struct.Luau::BytecodeBuilder::ConstantKey", align 8
  %6 = tail call noundef i32 @_ZN4Luau15BytecodeBuilder19addStringTableEntryENS0_9StringRefE(ptr noundef nonnull align 8 dereferenceable(840) %0, ptr %1, i64 %2)
  call void @llvm.lifetime.start.p0(i64 24, ptr nonnull %4) #33
  call void @llvm.memcpy.p0.p0.i64(ptr noundef nonnull align 8 dereferenceable(24) %4, ptr noundef nonnull align 8 dereferenceable(24) @__const._ZN4Luau15BytecodeBuilder17addConstantStringENS0_9StringRefE.c, i64 24, i1 false)
  %7 = getelementptr inbounds nuw i8, ptr %4, i64 8
  store i32 %6, ptr %7, align 8, !tbaa !128
  call void @llvm.lifetime.start.p0(i64 24, ptr nonnull %5) #33
  store i32 4, ptr %5, align 8, !tbaa !15
  %8 = getelementptr inbounds nuw i8, ptr %5, i64 8
  %9 = zext i32 %6 to i64
  store i64 %9, ptr %8, align 8, !tbaa !18
  %10 = getelementptr inbounds nuw i8, ptr %5, i64 16
  store i64 0, ptr %10, align 8, !tbaa !252
  %11 = call noundef i32 @_ZN4Luau15BytecodeBuilder11addConstantERKNS0_11ConstantKeyERKNS0_8ConstantE(ptr noundef nonnull align 8 dereferenceable(840) %0, ptr noundef nonnull align 8 dereferenceable(24) %5, ptr noundef nonnull align 8 dereferenceable(24) %4)
  call void @llvm.lifetime.end.p0(i64 24, ptr nonnull %5) #33
  call void @llvm.lifetime.end.p0(i64 24, ptr nonnull %4) #33
  ret i32 %11
}